; Function Attrs: mustprogress uwtable
define hidden void @_ZN10num_occursclEP4expr(ptr noundef nonnull align 8 dereferenceable(40) %0, ptr noundef %1) local_unnamed_addr #3 align 2 personality ptr @__gxx_personality_v0 {
  %3 = alloca %class.ast_fast_mark, align 8
  call void @llvm.lifetime.start.p0(i64 144, ptr nonnull %3) #10
  %4 = getelementptr inbounds nuw i8, ptr %3, i64 16
  store ptr %4, ptr %3, align 8, !tbaa !31
  %5 = getelementptr inbounds nuw i8, ptr %3, i64 8
  store i32 0, ptr %5, align 8, !tbaa !27
  %6 = getelementptr inbounds nuw i8, ptr %3, i64 12
  store i32 16, ptr %6, align 4, !tbaa !30
  invoke void @_ZN10num_occurs7processEP4exprR13ast_fast_markILj1EE(ptr noundef nonnull align 8 dereferenceable(40) %0, ptr noundef %1, ptr noundef nonnull align 8 dereferenceable(144) %3)
          to label %7 unwind label %23

7:                                                ; preds = %2
  %8 = load ptr, ptr %3, align 8, !tbaa !31
  %9 = load i32, ptr %5, align 8, !tbaa !27
  %10 = zext i32 %9 to i64
  %11 = getelementptr inbounds nuw ptr, ptr %8, i64 %10
  %.not8.i.i = icmp eq i32 %9, 0
  br i1 %.not8.i.i, label %.loopexit.i, label %.lr.ph.i.i

.lr.ph.i.i:                                       ; preds = %7, %.lr.ph.i.i
  %.09.i.i = phi ptr [ %16, %.lr.ph.i.i ], [ %8, %7 ]
  %12 = load ptr, ptr %.09.i.i, align 8, !tbaa !32
  %13 = getelementptr inbounds nuw i8, ptr %12, i64 4
  %14 = load i32, ptr %13, align 4
  %15 = and i32 %14, -65537
  store i32 %15, ptr %13, align 4
  %16 = getelementptr inbounds nuw i8, ptr %.09.i.i, i64 8
  %.not.i.i = icmp eq ptr %16, %11
  br i1 %.not.i.i, label %.loopexit.loopexit.i, label %.lr.ph.i.i

.loopexit.loopexit.i:                             ; preds = %.lr.ph.i.i
  %.pre.i = load ptr, ptr %3, align 8, !tbaa !31
  br label %.loopexit.i

.loopexit.i:                                      ; preds = %.loopexit.loopexit.i, %7
  %17 = phi ptr [ %.pre.i, %.loopexit.loopexit.i ], [ %8, %7 ]
  store i32 0, ptr %5, align 8, !tbaa !27
  %.not.i.i.i.i = icmp eq ptr %17, %4
  %18 = icmp eq ptr %17, null
  %or.cond.i.i.i.i = or i1 %.not.i.i.i.i, %18
  br i1 %or.cond.i.i.i.i, label %_ZN13ast_fast_markILj1EED2Ev.exit, label %19

19:                                               ; preds = %.loopexit.i
  invoke void @_ZN6memory10deallocateEPv(ptr noundef nonnull %17)
          to label %_ZN13ast_fast_markILj1EED2Ev.exit unwind label %20

20:                                               ; preds = %19
  %21 = landingpad { ptr, i32 }
          catch ptr null
  %22 = extractvalue { ptr, i32 } %21, 0
  call void @__clang_call_terminate(ptr %22) #11
  unreachable

_ZN13ast_fast_markILj1EED2Ev.exit:                ; preds = %.loopexit.i, %19
  call void @llvm.lifetime.end.p0(i64 144, ptr nonnull %3) #10
  ret void

23:                                               ; preds = %2
  %24 = landingpad { ptr, i32 }
          cleanup
  call void @_ZN13ast_fast_markILj1EED2Ev(ptr noundef nonnull align 8 dereferenceable(144) %3) #10
  call void @llvm.lifetime.end.p0(i64 144, ptr nonnull %3) #10
  resume { ptr, i32 } %24
}